target datalayout = "e-m:e-p270:32:32-p271:32:32-p272:64:64-i64:64-i128:128-f80:128-n8:16:32:64-S128"
target triple = "x86_64-pc-linux-gnu"

%struct.archive_write = type { %struct.archive, i32, i64, i64, ptr, i64, ptr, ptr, ptr, ptr, ptr, i32, i32, ptr, ptr, ptr, ptr, ptr, ptr, ptr, ptr, ptr, ptr, ptr, ptr, ptr, ptr }
%struct.archive = type { i32, i32, ptr, i32, ptr, i32, i32, ptr, %struct.archive_string, ptr, i32, i32, ptr, ptr, i64, i64, i64, i8, i64 }
%struct.archive_string = type { ptr, i64, i64 }

@.str.11 = private unnamed_addr constant [27 x i8] c"archive_write_finish_entry\00", align 1

; Function Attrs: nounwind uwtable
define internal i32 @_archive_write_finish_entry(ptr noundef %0) #0 {
  %2 = alloca i32, align 4
  %3 = alloca ptr, align 8
  %4 = alloca ptr, align 8
  %5 = alloca i32, align 4
  %6 = alloca i32, align 4
  %7 = alloca i32, align 4
  store ptr %0, ptr %3, align 8, !tbaa !26
  call void @llvm.lifetime.start.p0(i64 8, ptr %4) #9
  %8 = load ptr, ptr %3, align 8, !tbaa !26
  store ptr %8, ptr %4, align 8, !tbaa !4
  call void @llvm.lifetime.start.p0(i64 4, ptr %5) #9
  store i32 0, ptr %5, align 4, !tbaa !28
  br label %9

9:                                                ; preds = %1
  call void @llvm.lifetime.start.p0(i64 4, ptr %6) #9
  %10 = load ptr, ptr %4, align 8, !tbaa !4
  %11 = getelementptr inbounds nuw %struct.archive_write, ptr %10, i32 0, i32 0
  %12 = call i32 @__archive_check_magic(ptr noundef %11, i32 noundef -1329217314, i32 noundef 6, ptr noundef @.str.11)
  store i32 %12, ptr %6, align 4, !tbaa !28
  %13 = load i32, ptr %6, align 4, !tbaa !28
  %14 = icmp eq i32 %13, -30
  br i1 %14, label %15, label %16

15:                                               ; preds = %9
  store i32 -30, ptr %2, align 4
  store i32 1, ptr %7, align 4
  br label %17

16:                                               ; preds = %9
  store i32 0, ptr %7, align 4
  br label %17

17:                                               ; preds = %16, %15
  call void @llvm.lifetime.end.p0(i64 4, ptr %6) #9
  %18 = load i32, ptr %7, align 4
  switch i32 %18, label %44 [
    i32 0, label %19
  ]

19:                                               ; preds = %17
  br label %20

20:                                               ; preds = %19
  br label %21

21:                                               ; preds = %20
  %22 = load ptr, ptr %4, align 8, !tbaa !4
  %23 = getelementptr inbounds nuw %struct.archive_write, ptr %22, i32 0, i32 0
  %24 = getelementptr inbounds nuw %struct.archive, ptr %23, i32 0, i32 1
  %25 = load i32, ptr %24, align 4, !tbaa !19
  %26 = and i32 %25, 4
  %27 = icmp ne i32 %26, 0
  br i1 %27, label %28, label %39

28:                                               ; preds = %21
  %29 = load ptr, ptr %4, align 8, !tbaa !4
  %30 = getelementptr inbounds nuw %struct.archive_write, ptr %29, i32 0, i32 19
  %31 = load ptr, ptr %30, align 8, !tbaa !71
  %32 = icmp ne ptr %31, null
  br i1 %32, label %33, label %39

33:                                               ; preds = %28
  %34 = load ptr, ptr %4, align 8, !tbaa !4
  %35 = getelementptr inbounds nuw %struct.archive_write, ptr %34, i32 0, i32 19
  %36 = load ptr, ptr %35, align 8, !tbaa !71
  %37 = load ptr, ptr %4, align 8, !tbaa !4
  %38 = call i32 %36(ptr noundef %37)
  store i32 %38, ptr %5, align 4, !tbaa !28
  br label %39

39:                                               ; preds = %33, %28, %21
  %40 = load ptr, ptr %4, align 8, !tbaa !4
  %41 = getelementptr inbounds nuw %struct.archive_write, ptr %40, i32 0, i32 0
  %42 = getelementptr inbounds nuw %struct.archive, ptr %41, i32 0, i32 1
  store i32 2, ptr %42, align 4, !tbaa !19
  %43 = load i32, ptr %5, align 4, !tbaa !28
  store i32 %43, ptr %2, align 4
  store i32 1, ptr %7, align 4
  br label %44

44:                                               ; preds = %39, %17
  call void @llvm.lifetime.end.p0(i64 4, ptr %5) #9
  call void @llvm.lifetime.end.p0(i64 8, ptr %4) #9
  %45 = load i32, ptr %2, align 4
  ret i32 %45
}