; Function Attrs: nounwind uwtable
define internal i32 @_archive_write_finish_entry(ptr noundef %0) #3 {
  %2 = tail call i32 @__archive_check_magic(ptr noundef %0, i32 noundef -1329217314, i32 noundef 6, ptr noundef nonnull @.str.11) #13
  %.not = icmp eq i32 %2, -30
  br i1 %.not, label %13, label %3

3:                                                ; preds = %1
  %4 = getelementptr inbounds nuw i8, ptr %0, i64 4
  %5 = load i32, ptr %4, align 4, !tbaa !17
  %6 = and i32 %5, 4
  %.not13 = icmp eq i32 %6, 0
  br i1 %.not13, label %12, label %7

7:                                                ; preds = %3
  %8 = getelementptr inbounds nuw i8, ptr %0, i64 280
  %9 = load ptr, ptr %8, align 8, !tbaa !61
  %.not14 = icmp eq ptr %9, null
  br i1 %.not14, label %12, label %10

10:                                               ; preds = %7
  %11 = tail call i32 %9(ptr noundef nonnull %0) #13
  br label %12

12:                                               ; preds = %10, %7, %3
  %.011 = phi i32 [ %11, %10 ], [ 0, %7 ], [ 0, %3 ]
  store i32 2, ptr %4, align 4, !tbaa !17
  br label %13

13:                                               ; preds = %1, %12
  %.1 = phi i32 [ %.011, %12 ], [ -30, %1 ]
  ret i32 %.1
}